; ModuleID = '23/18.c'
source_filename = "23/18.c"
target datalayout = "e-m:e-p270:32:32-p271:32:32-p272:64:64-i64:64-f80:128-n8:16:32:64-S128"
target triple = "x86_64-pc-linux-gnu"

@.str = private unnamed_addr constant [4 x i8] c"%s \00", align 1
@.str.1 = private unnamed_addr constant [4 x i8] c"%s\0A\00", align 1

; Function Attrs: noinline nounwind uwtable
define dso_local void @main() #0 {
  %1 = alloca [100 x i8], align 16
  %2 = alloca [100 x [100 x i8]], align 16
  %3 = alloca i8*, align 8
  %4 = alloca [100 x i8]*, align 8
  %5 = alloca i32, align 4
  %6 = alloca i32, align 4
  %7 = alloca i32, align 4
  %8 = getelementptr inbounds [100 x i8], [100 x i8]* %1, i64 0, i64 0
  store i8* %8, i8** %3, align 8
  %9 = getelementptr inbounds [100 x i8], [100 x i8]* %1, i64 0, i64 0
  %10 = call i32 (i8*, ...) bitcast (i32 (...)* @gets to i32 (i8*, ...)*)(i8* %9)
  %11 = getelementptr inbounds [100 x [100 x i8]], [100 x [100 x i8]]* %2, i64 0, i64 0
  store [100 x i8]* %11, [100 x i8]** %4, align 8
  store i32 0, i32* %6, align 4
  store i32 0, i32* %7, align 4
  store i32 0, i32* %5, align 4
  br label %12

12:                                               ; preds = %56, %0
  %13 = load i8*, i8** %3, align 8
  %14 = load i32, i32* %5, align 4
  %15 = sext i32 %14 to i64
  %16 = getelementptr inbounds i8, i8* %13, i64 %15
  %17 = load i8, i8* %16, align 1
  %18 = sext i8 %17 to i32
  %19 = icmp ne i32 %18, 0
  br i1 %19, label %20, label %59

20:                                               ; preds = %12
  %21 = load i8*, i8** %3, align 8
  %22 = load i32, i32* %5, align 4
  %23 = sext i32 %22 to i64
  %24 = getelementptr inbounds i8, i8* %21, i64 %23
  %25 = load i8, i8* %24, align 1
  %26 = sext i8 %25 to i32
  %27 = icmp eq i32 %26, 32
  br i1 %27, label %28, label %39

28:                                               ; preds = %20
  %29 = load [100 x i8]*, [100 x i8]** %4, align 8
  %30 = load i32, i32* %6, align 4
  %31 = sext i32 %30 to i64
  %32 = getelementptr inbounds [100 x i8], [100 x i8]* %29, i64 %31
  %33 = getelementptr inbounds [100 x i8], [100 x i8]* %32, i64 0, i64 0
  %34 = load i32, i32* %7, align 4
  %35 = sext i32 %34 to i64
  %36 = getelementptr inbounds i8, i8* %33, i64 %35
  store i8 0, i8* %36, align 1
  %37 = load i32, i32* %6, align 4
  %38 = add nsw i32 %37, 1
  store i32 %38, i32* %6, align 4
  store i32 0, i32* %7, align 4
  br label %55

39:                                               ; preds = %20
  %40 = load i8*, i8** %3, align 8
  %41 = load i32, i32* %5, align 4
  %42 = sext i32 %41 to i64
  %43 = getelementptr inbounds i8, i8* %40, i64 %42
  %44 = load i8, i8* %43, align 1
  %45 = load [100 x i8]*, [100 x i8]** %4, align 8
  %46 = load i32, i32* %6, align 4
  %47 = sext i32 %46 to i64
  %48 = getelementptr inbounds [100 x i8], [100 x i8]* %45, i64 %47
  %49 = getelementptr inbounds [100 x i8], [100 x i8]* %48, i64 0, i64 0
  %50 = load i32, i32* %7, align 4
  %51 = sext i32 %50 to i64
  %52 = getelementptr inbounds i8, i8* %49, i64 %51
  store i8 %44, i8* %52, align 1
  %53 = load i32, i32* %7, align 4
  %54 = add nsw i32 %53, 1
  store i32 %54, i32* %7, align 4
  br label %55

55:                                               ; preds = %39, %28
  br label %56

56:                                               ; preds = %55
  %57 = load i32, i32* %5, align 4
  %58 = add nsw i32 %57, 1
  store i32 %58, i32* %5, align 4
  br label %12

59:                                               ; preds = %12
  %60 = load [100 x i8]*, [100 x i8]** %4, align 8
  %61 = load i32, i32* %6, align 4
  %62 = sext i32 %61 to i64
  %63 = getelementptr inbounds [100 x i8], [100 x i8]* %60, i64 %62
  %64 = getelementptr inbounds [100 x i8], [100 x i8]* %63, i64 0, i64 0
  %65 = load i32, i32* %7, align 4
  %66 = sext i32 %65 to i64
  %67 = getelementptr inbounds i8, i8* %64, i64 %66
  store i8 0, i8* %67, align 1
  %68 = load i32, i32* %6, align 4
  store i32 %68, i32* %5, align 4
  br label %69

69:                                               ; preds = %78, %59
  %70 = load i32, i32* %5, align 4
  %71 = icmp sgt i32 %70, 0
  br i1 %71, label %72, label %81

72:                                               ; preds = %69
  %73 = load [100 x i8]*, [100 x i8]** %4, align 8
  %74 = load i32, i32* %5, align 4
  %75 = sext i32 %74 to i64
  %76 = getelementptr inbounds [100 x i8], [100 x i8]* %73, i64 %75
  %77 = call i32 (i8*, ...) @printf(i8* getelementptr inbounds ([4 x i8], [4 x i8]* @.str, i64 0, i64 0), [100 x i8]* %76)
  br label %78

78:                                               ; preds = %72
  %79 = load i32, i32* %5, align 4
  %80 = add nsw i32 %79, -1
  store i32 %80, i32* %5, align 4
  br label %69

81:                                               ; preds = %69
  %82 = load [100 x i8]*, [100 x i8]** %4, align 8
  %83 = call i32 (i8*, ...) @printf(i8* getelementptr inbounds ([4 x i8], [4 x i8]* @.str.1, i64 0, i64 0), [100 x i8]* %82)
  ret void
}

declare dso_local i32 @gets(...) #1

declare dso_local i32 @printf(i8*, ...) #1


!llvm.module.flags = !{!0}
!llvm.ident = !{!1}

!0 = !{i32 1, !"wchar_size", i32 4}
!1 = !{!"clang version 10.0.0-4ubuntu1 "}
